ccopy_reg
_reconstructor
p0
(csets
Set
p1
c__builtin__
object
p2
Ntp3
Rp4
((dp5
S'a'
p6
I01
sS'j'
p7
I01
sS'g'
p8
I01
sS'&'
p9
I01
sS'i'
p10
I01
sS'H'
p11
I01
sS'k'
p12
I01
sS'-'
p13
I01
sS'm'
p14
I01
sS'l'
p15
I01
sS'n'
p16
I01
sS'q'
p17
I01
sS'p'
p18
I01
sS's'
p19
I01
sS'r'
p20
I01
sS'u'
p21
I01
sS't'
p22
I01
sS'h'
p23
I01
sS'b'
p24
I01
sS'v'
p25
I01
stp26
b.